; ModuleID = '38/1730.cpp'
source_filename = "38/1730.cpp"
target datalayout = "e-m:e-p270:32:32-p271:32:32-p272:64:64-i64:64-f80:128-n8:16:32:64-S128"
target triple = "x86_64-pc-linux-gnu"

%"class.std::ios_base::Init" = type { i8 }
%"class.std::basic_istream" = type { i32 (...)**, i64, %"class.std::basic_ios" }
%"class.std::basic_ios" = type { %"class.std::ios_base", %"class.std::basic_ostream"*, i8, i8, %"class.std::basic_streambuf"*, %"class.std::ctype"*, %"class.std::num_put"*, %"class.std::num_get"* }
%"class.std::ios_base" = type { i32 (...)**, i64, i64, i32, i32, i32, %"struct.std::ios_base::_Callback_list"*, %"struct.std::ios_base::_Words", [8 x %"struct.std::ios_base::_Words"], i32, %"struct.std::ios_base::_Words"*, %"class.std::locale" }
%"struct.std::ios_base::_Callback_list" = type { %"struct.std::ios_base::_Callback_list"*, void (i32, %"class.std::ios_base"*, i32)*, i32, i32 }
%"struct.std::ios_base::_Words" = type { i8*, i64 }
%"class.std::locale" = type { %"class.std::locale::_Impl"* }
%"class.std::locale::_Impl" = type { i32, %"class.std::locale::facet"**, i64, %"class.std::locale::facet"**, i8** }
%"class.std::locale::facet" = type <{ i32 (...)**, i32, [4 x i8] }>
%"class.std::basic_ostream" = type { i32 (...)**, %"class.std::basic_ios" }
%"class.std::basic_streambuf" = type { i32 (...)**, i8*, i8*, i8*, i8*, i8*, i8*, %"class.std::locale" }
%"class.std::ctype" = type <{ %"class.std::locale::facet.base", [4 x i8], %struct.__locale_struct*, i8, [7 x i8], i32*, i32*, i16*, i8, [256 x i8], [256 x i8], i8, [6 x i8] }>
%"class.std::locale::facet.base" = type <{ i32 (...)**, i32 }>
%struct.__locale_struct = type { [13 x %struct.__locale_data*], i16*, i32*, i32*, [13 x i8*] }
%struct.__locale_data = type opaque
%"class.std::num_put" = type { %"class.std::locale::facet.base", [4 x i8] }
%"class.std::num_get" = type { %"class.std::locale::facet.base", [4 x i8] }

@_ZStL8__ioinit = internal global %"class.std::ios_base::Init" zeroinitializer, align 1
@__dso_handle = external hidden global i8
@_ZSt3cin = external dso_local global %"class.std::basic_istream", align 8
@.str = private unnamed_addr constant [6 x i8] c"%.5f\0A\00", align 1
@llvm.global_ctors = appending global [1 x { i32, void ()*, i8* }] [{ i32, void ()*, i8* } { i32 65535, void ()* @_GLOBAL__sub_I_1730.cpp, i8* null }]

; Function Attrs: noinline uwtable
define internal void @__cxx_global_var_init() #0 section ".text.startup" {
  call void @_ZNSt8ios_base4InitC1Ev(%"class.std::ios_base::Init"* @_ZStL8__ioinit)
  %1 = call i32 @__cxa_atexit(void (i8*)* bitcast (void (%"class.std::ios_base::Init"*)* @_ZNSt8ios_base4InitD1Ev to void (i8*)*), i8* getelementptr inbounds (%"class.std::ios_base::Init", %"class.std::ios_base::Init"* @_ZStL8__ioinit, i32 0, i32 0), i8* @__dso_handle) #3
  ret void
}

declare dso_local void @_ZNSt8ios_base4InitC1Ev(%"class.std::ios_base::Init"*) unnamed_addr #1

; Function Attrs: nounwind
declare dso_local void @_ZNSt8ios_base4InitD1Ev(%"class.std::ios_base::Init"*) unnamed_addr #2

; Function Attrs: nounwind
declare dso_local i32 @__cxa_atexit(void (i8*)*, i8*, i8*) #3

; Function Attrs: noinline norecurse uwtable
define dso_local i32 @main() #4 {
  %1 = alloca i32, align 4
  %2 = alloca i32, align 4
  %3 = alloca i32, align 4
  %4 = alloca [1000 x double], align 16
  %5 = alloca double, align 8
  %6 = alloca double, align 8
  %7 = alloca i32, align 4
  %8 = alloca i32, align 4
  store i32 0, i32* %1, align 4
  %9 = call dereferenceable(280) %"class.std::basic_istream"* @_ZNSirsERi(%"class.std::basic_istream"* @_ZSt3cin, i32* dereferenceable(4) %2)
  br label %10

10:                                               ; preds = %62, %0
  %11 = load i32, i32* %2, align 4
  %12 = add nsw i32 %11, -1
  store i32 %12, i32* %2, align 4
  %13 = icmp ne i32 %11, 0
  br i1 %13, label %14, label %71

14:                                               ; preds = %10
  %15 = call dereferenceable(280) %"class.std::basic_istream"* @_ZNSirsERi(%"class.std::basic_istream"* @_ZSt3cin, i32* dereferenceable(4) %3)
  store double 0.000000e+00, double* %5, align 8
  store double 0.000000e+00, double* %6, align 8
  store i32 0, i32* %7, align 4
  br label %16

16:                                               ; preds = %31, %14
  %17 = load i32, i32* %7, align 4
  %18 = load i32, i32* %3, align 4
  %19 = icmp slt i32 %17, %18
  br i1 %19, label %20, label %34

20:                                               ; preds = %16
  %21 = load i32, i32* %7, align 4
  %22 = sext i32 %21 to i64
  %23 = getelementptr inbounds [1000 x double], [1000 x double]* %4, i64 0, i64 %22
  %24 = call dereferenceable(280) %"class.std::basic_istream"* @_ZNSirsERd(%"class.std::basic_istream"* @_ZSt3cin, double* dereferenceable(8) %23)
  %25 = load double, double* %5, align 8
  %26 = load i32, i32* %7, align 4
  %27 = sext i32 %26 to i64
  %28 = getelementptr inbounds [1000 x double], [1000 x double]* %4, i64 0, i64 %27
  %29 = load double, double* %28, align 8
  %30 = fadd double %25, %29
  store double %30, double* %5, align 8
  br label %31

31:                                               ; preds = %20
  %32 = load i32, i32* %7, align 4
  %33 = add nsw i32 %32, 1
  store i32 %33, i32* %7, align 4
  br label %16

34:                                               ; preds = %16
  %35 = load double, double* %5, align 8
  %36 = load i32, i32* %3, align 4
  %37 = sitofp i32 %36 to double
  %38 = fdiv double %35, %37
  store double %38, double* %5, align 8
  store i32 0, i32* %8, align 4
  br label %39

39:                                               ; preds = %59, %34
  %40 = load i32, i32* %8, align 4
  %41 = load i32, i32* %3, align 4
  %42 = icmp slt i32 %40, %41
  br i1 %42, label %43, label %62

43:                                               ; preds = %39
  %44 = load double, double* %6, align 8
  %45 = load i32, i32* %8, align 4
  %46 = sext i32 %45 to i64
  %47 = getelementptr inbounds [1000 x double], [1000 x double]* %4, i64 0, i64 %46
  %48 = load double, double* %47, align 8
  %49 = load double, double* %5, align 8
  %50 = fsub double %48, %49
  %51 = load i32, i32* %8, align 4
  %52 = sext i32 %51 to i64
  %53 = getelementptr inbounds [1000 x double], [1000 x double]* %4, i64 0, i64 %52
  %54 = load double, double* %53, align 8
  %55 = load double, double* %5, align 8
  %56 = fsub double %54, %55
  %57 = fmul double %50, %56
  %58 = fadd double %44, %57
  store double %58, double* %6, align 8
  br label %59

59:                                               ; preds = %43
  %60 = load i32, i32* %8, align 4
  %61 = add nsw i32 %60, 1
  store i32 %61, i32* %8, align 4
  br label %39

62:                                               ; preds = %39
  %63 = load double, double* %6, align 8
  %64 = load i32, i32* %3, align 4
  %65 = sitofp i32 %64 to double
  %66 = fdiv double %63, %65
  store double %66, double* %6, align 8
  %67 = load double, double* %6, align 8
  %68 = call double @sqrt(double %67) #3
  store double %68, double* %6, align 8
  %69 = load double, double* %6, align 8
  %70 = call i32 (i8*, ...) @printf(i8* getelementptr inbounds ([6 x i8], [6 x i8]* @.str, i64 0, i64 0), double %69)
  br label %10

71:                                               ; preds = %10
  ret i32 0
}

declare dso_local dereferenceable(280) %"class.std::basic_istream"* @_ZNSirsERi(%"class.std::basic_istream"*, i32* dereferenceable(4)) #1

declare dso_local dereferenceable(280) %"class.std::basic_istream"* @_ZNSirsERd(%"class.std::basic_istream"*, double* dereferenceable(8)) #1

; Function Attrs: nounwind
declare dso_local double @sqrt(double) #2

declare dso_local i32 @printf(i8*, ...) #1

; Function Attrs: noinline uwtable
define internal void @_GLOBAL__sub_I_1730.cpp() #0 section ".text.startup" {
  call void @__cxx_global_var_init()
  ret void
}


!llvm.module.flags = !{!0}
!llvm.ident = !{!1}

!0 = !{i32 1, !"wchar_size", i32 4}
!1 = !{!"clang version 10.0.0-4ubuntu1 "}
